; ModuleID = 'source-C-CXX/32/2991.c'
source_filename = "source-C-CXX/32/2991.c"
target datalayout = "e-m:e-p270:32:32-p271:32:32-p272:64:64-i64:64-f80:128-n8:16:32:64-S128"
target triple = "x86_64-pc-linux-gnu"

%struct._IO_FILE = type { i32, i8*, i8*, i8*, i8*, i8*, i8*, i8*, i8*, i8*, i8*, i8*, %struct._IO_marker*, %struct._IO_FILE*, i32, i32, i64, i16, i8, [1 x i8], i8*, i64, %struct._IO_codecvt*, %struct._IO_wide_data*, %struct._IO_FILE*, i8*, i64, i32, [20 x i8] }
%struct._IO_marker = type opaque
%struct._IO_codecvt = type opaque
%struct._IO_wide_data = type opaque

@.str = private unnamed_addr constant [3 x i8] c"%d\00", align 1
@.str.1 = private unnamed_addr constant [3 x i8] c"%s\00", align 1
@stdin = external local_unnamed_addr global %struct._IO_FILE*, align 8

; Function Attrs: nofree nounwind sspstrong uwtable
define dso_local i32 @main() local_unnamed_addr #0 {
  %1 = alloca i32, align 4
  %2 = alloca [300 x i8], align 16
  %3 = bitcast i32* %1 to i8*
  call void @llvm.lifetime.start.p0i8(i64 4, i8* nonnull %3) #5
  %4 = getelementptr inbounds [300 x i8], [300 x i8]* %2, i64 0, i64 0
  call void @llvm.lifetime.start.p0i8(i64 300, i8* nonnull %4) #5
  %5 = call i32 (i8*, ...) @__isoc99_scanf(i8* getelementptr inbounds ([3 x i8], [3 x i8]* @.str, i64 0, i64 0), i32* nonnull %1)
  %6 = load %struct._IO_FILE*, %struct._IO_FILE** @stdin, align 8, !tbaa !5
  %7 = call i32 @getc(%struct._IO_FILE* %6) #5
  %8 = load i32, i32* %1, align 4, !tbaa !9
  %9 = icmp slt i32 %8, 1
  br i1 %9, label %35, label %10

10:                                               ; preds = %0, %30
  %11 = phi i32 [ %32, %30 ], [ 1, %0 ]
  %12 = call i32 (i8*, ...) @__isoc99_scanf(i8* getelementptr inbounds ([3 x i8], [3 x i8]* @.str.1, i64 0, i64 0), i8* nonnull %4)
  %13 = call i64 @strlen(i8* noundef nonnull %4) #6
  %14 = shl i64 %13, 32
  %15 = ashr exact i64 %14, 32
  %16 = getelementptr inbounds [300 x i8], [300 x i8]* %2, i64 0, i64 %15
  store i8 0, i8* %16, align 1, !tbaa !11
  br label %17

17:                                               ; preds = %10, %24
  %18 = phi i64 [ 0, %10 ], [ %28, %24 ]
  %19 = getelementptr inbounds [300 x i8], [300 x i8]* %2, i64 0, i64 %18
  %20 = load i8, i8* %19, align 1, !tbaa !11
  switch i8 %20, label %30 [
    i8 65, label %24
    i8 84, label %21
    i8 71, label %22
    i8 67, label %23
  ]

21:                                               ; preds = %17
  br label %24

22:                                               ; preds = %17
  br label %24

23:                                               ; preds = %17
  br label %24

24:                                               ; preds = %17, %22, %23, %21
  %25 = phi i8 [ 67, %22 ], [ 71, %23 ], [ 65, %21 ], [ 84, %17 ]
  %26 = phi i32 [ 67, %22 ], [ 71, %23 ], [ 65, %21 ], [ 84, %17 ]
  store i8 %25, i8* %19, align 1, !tbaa !11
  %27 = call i32 @putchar(i32 %26)
  %28 = add nuw nsw i64 %18, 1
  %29 = icmp eq i64 %28, 300
  br i1 %29, label %30, label %17, !llvm.loop !12

30:                                               ; preds = %17, %24
  %31 = call i32 @putchar(i32 10)
  %32 = add nuw nsw i32 %11, 1
  %33 = load i32, i32* %1, align 4, !tbaa !9
  %34 = icmp slt i32 %11, %33
  br i1 %34, label %10, label %35, !llvm.loop !14

35:                                               ; preds = %30, %0
  call void @llvm.lifetime.end.p0i8(i64 300, i8* nonnull %4) #5
  call void @llvm.lifetime.end.p0i8(i64 4, i8* nonnull %3) #5
  ret i32 0
}

; Function Attrs: argmemonly mustprogress nofree nosync nounwind willreturn
declare void @llvm.lifetime.start.p0i8(i64 immarg, i8* nocapture) #1

; Function Attrs: nofree nounwind
declare noundef i32 @__isoc99_scanf(i8* nocapture noundef readonly, ...) local_unnamed_addr #2

; Function Attrs: argmemonly mustprogress nofree nounwind readonly willreturn
declare i64 @strlen(i8* nocapture) local_unnamed_addr #3

; Function Attrs: argmemonly mustprogress nofree nosync nounwind willreturn
declare void @llvm.lifetime.end.p0i8(i64 immarg, i8* nocapture) #1

; Function Attrs: nofree nounwind
declare noundef i32 @getc(%struct._IO_FILE* nocapture noundef) local_unnamed_addr #2

; Function Attrs: nofree nounwind
declare noundef i32 @putchar(i32 noundef) local_unnamed_addr #4


!llvm.module.flags = !{!0, !1, !2, !3}
!llvm.ident = !{!4}

!0 = !{i32 1, !"wchar_size", i32 4}
!1 = !{i32 7, !"PIC Level", i32 2}
!2 = !{i32 7, !"PIE Level", i32 2}
!3 = !{i32 7, !"uwtable", i32 1}
!4 = !{!"clang version 13.0.0"}
!5 = !{!6, !6, i64 0}
!6 = !{!"any pointer", !7, i64 0}
!7 = !{!"omnipotent char", !8, i64 0}
!8 = !{!"Simple C/C++ TBAA"}
!9 = !{!10, !10, i64 0}
!10 = !{!"int", !7, i64 0}
!11 = !{!7, !7, i64 0}
!12 = distinct !{!12, !13}
!13 = !{!"llvm.loop.mustprogress"}
!14 = distinct !{!14, !13}
